; Function Attrs: mustprogress nounwind uwtable
define hidden void @_ZN5JVMCI6vtraceEiPKcP13__va_list_tag(i32 noundef %0, ptr noundef %1, ptr noundef %2) local_unnamed_addr #0 align 2 {
  %4 = load i64, ptr @JVMCITraceLevel, align 8
  %5 = sext i32 %0 to i64
  %.not = icmp slt i64 %4, %5
  br i1 %.not, label %44, label %6

6:                                                ; preds = %3
  %7 = tail call noundef zeroext i1 @_ZN18ThreadLocalStorage14is_initializedEv() #13
  br i1 %7, label %_ZN6Thread20current_or_null_safeEv.exit, label %_ZN6Thread20current_or_null_safeEv.exit.thread

_ZN6Thread20current_or_null_safeEv.exit:          ; preds = %6
  %8 = tail call noundef ptr @_ZN18ThreadLocalStorage6threadEv() #13
  %.not22 = icmp eq ptr %8, null
  br i1 %.not22, label %_ZN6Thread20current_or_null_safeEv.exit.thread, label %9

9:                                                ; preds = %_ZN6Thread20current_or_null_safeEv.exit
  %10 = load ptr, ptr %8, align 8
  %11 = getelementptr inbounds i8, ptr %10, i64 56
  %12 = load ptr, ptr %11, align 8
  %13 = tail call noundef zeroext i1 %12(ptr noundef nonnull align 8 dereferenceable(888) %8) #13
  br i1 %13, label %14, label %_ZN6Thread20current_or_null_safeEv.exit.thread

14:                                               ; preds = %9
  %15 = getelementptr inbounds i8, ptr %8, i64 800
  %16 = load ptr, ptr %15, align 8
  %17 = getelementptr inbounds i8, ptr %16, i64 24
  %18 = load ptr, ptr %17, align 8
  %19 = getelementptr inbounds i8, ptr %16, i64 32
  %20 = load ptr, ptr %19, align 8
  %21 = getelementptr inbounds i8, ptr %16, i64 40
  %22 = load ptr, ptr %21, align 8
  %23 = getelementptr inbounds i8, ptr %16, i64 8
  %24 = load i64, ptr %23, align 8
  %25 = getelementptr inbounds i8, ptr %8, i64 1092
  %26 = load volatile i32, ptr %25, align 4
  %switch.tableidx = add i32 %26, -2
  %27 = icmp ult i32 %switch.tableidx, 7
  br i1 %27, label %switch.lookup, label %30

switch.lookup:                                    ; preds = %14
  %28 = zext nneg i32 %switch.tableidx to i64
  %switch.gep = getelementptr inbounds [7 x i64], ptr @switch.table._ZN5JVMCI6vtraceEiPKcP13__va_list_tag, i64 0, i64 %28
  %switch.load = load i64, ptr %switch.gep, align 8
  %29 = zext nneg i32 %switch.tableidx to i64
  %switch.gep34 = getelementptr inbounds [7 x ptr], ptr @switch.table._ZN5JVMCI6vtraceEiPKcP13__va_list_tag.1, i64 0, i64 %29
  %switch.load35 = load ptr, ptr %switch.gep34, align 8
  br label %30

30:                                               ; preds = %14, %switch.lookup
  %.sink33 = phi i64 [ %switch.load, %switch.lookup ], [ 176, %14 ]
  %.str.16.sink = phi ptr [ %switch.load35, %switch.lookup ], [ @.str.16, %14 ]
  %31 = load ptr, ptr @tty, align 8
  %32 = ptrtoint ptr %8 to i64
  %33 = load ptr, ptr %8, align 8
  %34 = getelementptr inbounds i8, ptr %33, i64 %.sink33
  %35 = load ptr, ptr %34, align 8
  %36 = tail call noundef ptr %35(ptr noundef nonnull align 8 dereferenceable(888) %8) #13
  tail call void (ptr, ptr, ...) @_ZN12outputStream5printEPKcz(ptr noundef nonnull align 8 dereferenceable(56) %31, ptr noundef nonnull %.str.16.sink, i32 noundef %0, i64 noundef %32, ptr noundef %36, i32 noundef %0, i32 noundef 32) #13
  %37 = load ptr, ptr %18, align 8
  %.not.i.i.i.i = icmp eq ptr %37, null
  br i1 %.not.i.i.i.i, label %39, label %38

38:                                               ; preds = %30
  tail call void @_ZN5Arena17set_size_in_bytesEm(ptr noundef nonnull align 8 dereferenceable(48) %16, i64 noundef %24) #13
  tail call void @_ZN5Chunk9next_chopEPS_(ptr noundef nonnull %18) #13
  br label %39

39:                                               ; preds = %38, %30
  %40 = load ptr, ptr %19, align 8
  %.not8.i.i.i.i = icmp eq ptr %40, %20
  br i1 %.not8.i.i.i.i, label %_ZN12ResourceMarkD2Ev.exit, label %41

41:                                               ; preds = %39
  store ptr %18, ptr %17, align 8
  store ptr %20, ptr %19, align 8
  store ptr %22, ptr %21, align 8
  br label %_ZN12ResourceMarkD2Ev.exit

_ZN6Thread20current_or_null_safeEv.exit.thread:   ; preds = %6, %9, %_ZN6Thread20current_or_null_safeEv.exit
  %42 = load ptr, ptr @tty, align 8
  tail call void (ptr, ptr, ...) @_ZN12outputStream5printEPKcz(ptr noundef nonnull align 8 dereferenceable(56) %42, ptr noundef nonnull @.str.17, i32 noundef %0, i32 noundef %0, i32 noundef 32) #13
  br label %_ZN12ResourceMarkD2Ev.exit

_ZN12ResourceMarkD2Ev.exit:                       ; preds = %41, %39, %_ZN6Thread20current_or_null_safeEv.exit.thread
  %43 = load ptr, ptr @tty, align 8
  tail call void @_ZN12outputStream9vprint_crEPKcP13__va_list_tag(ptr noundef nonnull align 8 dereferenceable(56) %43, ptr noundef %1, ptr noundef %2) #13
  br label %44

44:                                               ; preds = %_ZN12ResourceMarkD2Ev.exit, %3
  ret void
}